target datalayout = "e-m:e-p270:32:32-p271:32:32-p272:64:64-i64:64-i128:128-f80:128-n8:16:32:64-S128"
target triple = "x86_64-pc-linux-gnu"

%struct.Agobj_s = type { %struct.Agtag_s, ptr }
%struct.Agtag_s = type { i32, i64 }
%struct.Agraphinfo_t = type { %struct.Agrec_s, ptr, ptr, %struct.boxf, [4 x %struct.pointf_s], i8, i8, i8, i8, i32, double, double, i16, ptr, ptr, ptr, ptr, i32, ptr, ptr, ptr, ptr, i16, i16, i32, ptr, ptr, ptr, ptr, ptr, i32, ptr, ptr, %struct.nlist_t, ptr, ptr, i32, i32, i8, i8, i32, i32, i32, ptr, ptr, ptr, ptr, i8, i8, i8, i8, i8 }
%struct.Agrec_s = type { ptr, ptr }
%struct.boxf = type { %struct.pointf_s, %struct.pointf_s }
%struct.pointf_s = type { double, double }
%struct.nlist_t = type { ptr, i64 }
%struct.rdata = type { i64, i64, i64, i64, ptr, double, double }
%struct.Agnodeinfo_t = type { %struct.Agrec_s, ptr, ptr, %struct.pointf_s, double, double, %struct.boxf, double, double, double, double, double, ptr, ptr, ptr, i8, i8, i8, i8, i32, i32, i32, ptr, double, i8, i8, ptr, ptr, i8, i64, i8, i8, i8, ptr, ptr, %struct.elist, %struct.elist, %struct.elist, %struct.elist, %struct.elist, ptr, i32, ptr, i32, i32, double, %struct.elist, %struct.elist, %struct.elist, %struct.elist, ptr, i32, i32, i32, [1 x double] }
%struct.elist = type { ptr, i64 }
%struct.Agedgeinfo_t = type { %struct.Agrec_s, ptr, %struct.port, %struct.port, ptr, ptr, ptr, ptr, i8, i8, i8, i8, i8, ptr, ptr, double, double, %struct.Ppoly_t, i8, i8, i16, i32, i32, i32, i16, i32, ptr }
%struct.port = type { %struct.pointf_s, double, ptr, i8, i8, i8, i8, i8, i8, ptr }
%struct.Ppoly_t = type { ptr, i64 }

@Ndim = external global i16, align 2
@stderr = external global ptr, align 8
@.str.6 = private unnamed_addr constant [58 x i8] c"integer overflow when trying to allocate %zu * %zu bytes\0A\00", align 1
@.str.7 = private unnamed_addr constant [49 x i8] c"out of memory when trying to allocate %zu bytes\0A\00", align 1
@.str.8 = private unnamed_addr constant [13 x i8] c"Agedgeinfo_t\00", align 1
@E_weight = external global ptr, align 8

; Function Attrs: nounwind uwtable
define internal void @twopi_init_edge(ptr noundef %0) #0 {
  %2 = alloca ptr, align 8
  store ptr %0, ptr %2, align 8, !tbaa !47
  %3 = load ptr, ptr %2, align 8, !tbaa !47
  %4 = call ptr @agbindrec(ptr noundef %3, ptr noundef @.str.8, i32 noundef 240, i32 noundef 1)
  %5 = load ptr, ptr %2, align 8, !tbaa !47
  call void @common_init_edge(ptr noundef %5)
  %6 = load ptr, ptr %2, align 8, !tbaa !47
  %7 = load ptr, ptr @E_weight, align 8, !tbaa !52
  %8 = call double @late_double(ptr noundef %6, ptr noundef %7, double noundef 1.000000e+00, double noundef 0.000000e+00)
  %9 = load ptr, ptr %2, align 8, !tbaa !47
  %10 = getelementptr inbounds nuw %struct.Agobj_s, ptr %9, i32 0, i32 1
  %11 = load ptr, ptr %10, align 8, !tbaa !8
  %12 = getelementptr inbounds nuw %struct.Agedgeinfo_t, ptr %11, i32 0, i32 15
  store double %8, ptr %12, align 8, !tbaa !70
  ret void
}

; Function Attrs: inlinehint nounwind uwtable
define internal ptr @gv_calloc(i64 noundef %0, i64 noundef %1) #4 {
  %3 = alloca i64, align 8
  %4 = alloca i64, align 8
  %5 = alloca ptr, align 8
  store i64 %0, ptr %3, align 8, !tbaa !57
  store i64 %1, ptr %4, align 8, !tbaa !57
  %6 = load i64, ptr %3, align 8, !tbaa !57
  %7 = icmp ugt i64 %6, 0
  br i1 %7, label %8, label %18

8:                                                ; preds = %2
  %9 = load i64, ptr %3, align 8, !tbaa !57
  %10 = udiv i64 -1, %9
  %11 = load i64, ptr %4, align 8, !tbaa !57
  %12 = icmp ult i64 %10, %11
  br i1 %12, label %13, label %18

13:                                               ; preds = %8
  %14 = load ptr, ptr @stderr, align 8, !tbaa !68
  %15 = load i64, ptr %3, align 8, !tbaa !57
  %16 = load i64, ptr %4, align 8, !tbaa !57
  %17 = call i32 (ptr, ptr, ...) @fprintf(ptr noundef %14, ptr noundef @.str.6, i64 noundef %15, i64 noundef %16) #8
  call void @graphviz_exit(i32 noundef 1) #9
  unreachable

18:                                               ; preds = %8, %2
  call void @llvm.lifetime.start.p0(i64 8, ptr %5) #8
  %19 = load i64, ptr %3, align 8, !tbaa !57
  %20 = load i64, ptr %4, align 8, !tbaa !57
  %21 = call noalias ptr @calloc(i64 noundef %19, i64 noundef %20) #10
  store ptr %21, ptr %5, align 8, !tbaa !35
  %22 = load i64, ptr %3, align 8, !tbaa !57
  %23 = icmp ugt i64 %22, 0
  br i1 %23, label %24, label %36

24:                                               ; preds = %18
  %25 = load i64, ptr %4, align 8, !tbaa !57
  %26 = icmp ugt i64 %25, 0
  br i1 %26, label %27, label %36

27:                                               ; preds = %24
  %28 = load ptr, ptr %5, align 8, !tbaa !35
  %29 = icmp eq ptr %28, null
  br i1 %29, label %30, label %36

30:                                               ; preds = %27
  %31 = load ptr, ptr @stderr, align 8, !tbaa !68
  %32 = load i64, ptr %3, align 8, !tbaa !57
  %33 = load i64, ptr %4, align 8, !tbaa !57
  %34 = mul i64 %32, %33
  %35 = call i32 (ptr, ptr, ...) @fprintf(ptr noundef %31, ptr noundef @.str.7, i64 noundef %34) #8
  call void @graphviz_exit(i32 noundef 1) #9
  unreachable

36:                                               ; preds = %27, %24, %18
  %37 = load ptr, ptr %5, align 8, !tbaa !35
  call void @llvm.lifetime.end.p0(i64 8, ptr %5) #8
  ret ptr %37
}

; Function Attrs: nounwind uwtable
define internal void @twopi_init_node_edge(ptr noundef %0) #0 {
  %2 = alloca ptr, align 8
  %3 = alloca ptr, align 8
  %4 = alloca ptr, align 8
  %5 = alloca i32, align 4
  %6 = alloca i32, align 4
  %7 = alloca ptr, align 8
  store ptr %0, ptr %2, align 8, !tbaa !3
  call void @llvm.lifetime.start.p0(i64 8, ptr %3) #8
  call void @llvm.lifetime.start.p0(i64 8, ptr %4) #8
  call void @llvm.lifetime.start.p0(i64 4, ptr %5) #8
  store i32 0, ptr %5, align 4, !tbaa !34
  call void @llvm.lifetime.start.p0(i64 4, ptr %6) #8
  %8 = load ptr, ptr %2, align 8, !tbaa !3
  %9 = call i32 @agnnodes(ptr noundef %8)
  store i32 %9, ptr %6, align 4, !tbaa !34
  call void @llvm.lifetime.start.p0(i64 8, ptr %7) #8
  %10 = load i32, ptr %6, align 4, !tbaa !34
  %11 = sext i32 %10 to i64
  %12 = call ptr @gv_calloc(i64 noundef %11, i64 noundef 56)
  store ptr %12, ptr %7, align 8, !tbaa !35
  %13 = load i32, ptr %6, align 4, !tbaa !34
  %14 = add nsw i32 %13, 1
  %15 = sext i32 %14 to i64
  %16 = call ptr @gv_calloc(i64 noundef %15, i64 noundef 8)
  %17 = load ptr, ptr %2, align 8, !tbaa !3
  %18 = getelementptr inbounds nuw %struct.Agobj_s, ptr %17, i32 0, i32 1
  %19 = load ptr, ptr %18, align 8, !tbaa !8
  %20 = getelementptr inbounds nuw %struct.Agraphinfo_t, ptr %19, i32 0, i32 16
  store ptr %16, ptr %20, align 8, !tbaa !36
  %21 = load ptr, ptr %2, align 8, !tbaa !3
  %22 = call ptr @agfstnode(ptr noundef %21)
  store ptr %22, ptr %3, align 8, !tbaa !37
  br label %23

23:                                               ; preds = %46, %1
  %24 = load ptr, ptr %3, align 8, !tbaa !37
  %25 = icmp ne ptr %24, null
  br i1 %25, label %26, label %50

26:                                               ; preds = %23
  %27 = load ptr, ptr %3, align 8, !tbaa !37
  call void @neato_init_node(ptr noundef %27)
  %28 = load ptr, ptr %7, align 8, !tbaa !35
  %29 = load i32, ptr %5, align 4, !tbaa !34
  %30 = sext i32 %29 to i64
  %31 = getelementptr inbounds %struct.rdata, ptr %28, i64 %30
  %32 = load ptr, ptr %3, align 8, !tbaa !37
  %33 = getelementptr inbounds nuw %struct.Agobj_s, ptr %32, i32 0, i32 1
  %34 = load ptr, ptr %33, align 8, !tbaa !8
  %35 = getelementptr inbounds nuw %struct.Agnodeinfo_t, ptr %34, i32 0, i32 14
  store ptr %31, ptr %35, align 8, !tbaa !38
  %36 = load ptr, ptr %3, align 8, !tbaa !37
  %37 = load ptr, ptr %2, align 8, !tbaa !3
  %38 = getelementptr inbounds nuw %struct.Agobj_s, ptr %37, i32 0, i32 1
  %39 = load ptr, ptr %38, align 8, !tbaa !8
  %40 = getelementptr inbounds nuw %struct.Agraphinfo_t, ptr %39, i32 0, i32 16
  %41 = load ptr, ptr %40, align 8, !tbaa !36
  %42 = load i32, ptr %5, align 4, !tbaa !34
  %43 = add nsw i32 %42, 1
  store i32 %43, ptr %5, align 4, !tbaa !34
  %44 = sext i32 %42 to i64
  %45 = getelementptr inbounds ptr, ptr %41, i64 %44
  store ptr %36, ptr %45, align 8, !tbaa !37
  br label %46

46:                                               ; preds = %26
  %47 = load ptr, ptr %2, align 8, !tbaa !3
  %48 = load ptr, ptr %3, align 8, !tbaa !37
  %49 = call ptr @agnxtnode(ptr noundef %47, ptr noundef %48)
  store ptr %49, ptr %3, align 8, !tbaa !37
  br label %23, !llvm.loop !45

50:                                               ; preds = %23
  %51 = load ptr, ptr %2, align 8, !tbaa !3
  %52 = call ptr @agfstnode(ptr noundef %51)
  store ptr %52, ptr %3, align 8, !tbaa !37
  br label %53

53:                                               ; preds = %70, %50
  %54 = load ptr, ptr %3, align 8, !tbaa !37
  %55 = icmp ne ptr %54, null
  br i1 %55, label %56, label %74

56:                                               ; preds = %53
  %57 = load ptr, ptr %2, align 8, !tbaa !3
  %58 = load ptr, ptr %3, align 8, !tbaa !37
  %59 = call ptr @agfstout(ptr noundef %57, ptr noundef %58)
  store ptr %59, ptr %4, align 8, !tbaa !47
  br label %60

60:                                               ; preds = %65, %56
  %61 = load ptr, ptr %4, align 8, !tbaa !47
  %62 = icmp ne ptr %61, null
  br i1 %62, label %63, label %69

63:                                               ; preds = %60
  %64 = load ptr, ptr %4, align 8, !tbaa !47
  call void @twopi_init_edge(ptr noundef %64)
  br label %65

65:                                               ; preds = %63
  %66 = load ptr, ptr %2, align 8, !tbaa !3
  %67 = load ptr, ptr %4, align 8, !tbaa !47
  %68 = call ptr @agnxtout(ptr noundef %66, ptr noundef %67)
  store ptr %68, ptr %4, align 8, !tbaa !47
  br label %60, !llvm.loop !48

69:                                               ; preds = %60
  br label %70

70:                                               ; preds = %69
  %71 = load ptr, ptr %2, align 8, !tbaa !3
  %72 = load ptr, ptr %3, align 8, !tbaa !37
  %73 = call ptr @agnxtnode(ptr noundef %71, ptr noundef %72)
  store ptr %73, ptr %3, align 8, !tbaa !37
  br label %53, !llvm.loop !49

74:                                               ; preds = %53
  call void @llvm.lifetime.end.p0(i64 8, ptr %7) #8
  call void @llvm.lifetime.end.p0(i64 4, ptr %6) #8
  call void @llvm.lifetime.end.p0(i64 4, ptr %5) #8
  call void @llvm.lifetime.end.p0(i64 8, ptr %4) #8
  call void @llvm.lifetime.end.p0(i64 8, ptr %3) #8
  ret void
}

; Function Attrs: nounwind uwtable
define void @twopi_init_graph(ptr noundef %0) #0 {
  %2 = alloca ptr, align 8
  store ptr %0, ptr %2, align 8, !tbaa !3
  %3 = load ptr, ptr %2, align 8, !tbaa !3
  call void @setEdgeType(ptr noundef %3, i32 noundef 2)
  %4 = load ptr, ptr %2, align 8, !tbaa !3
  %5 = call ptr @agroot(ptr noundef %4)
  %6 = getelementptr inbounds nuw %struct.Agobj_s, ptr %5, i32 0, i32 1
  %7 = load ptr, ptr %6, align 8, !tbaa !8
  %8 = getelementptr inbounds nuw %struct.Agraphinfo_t, ptr %7, i32 0, i32 22
  store i16 2, ptr %8, align 8, !tbaa !14
  store i16 2, ptr @Ndim, align 2, !tbaa !33
  %9 = load ptr, ptr %2, align 8, !tbaa !3
  call void @twopi_init_node_edge(ptr noundef %9)
  ret void
}