; Function Attrs: nounwind uwtable
define void @twopi_init_graph(ptr noundef %0) local_unnamed_addr #0 {
  tail call void @setEdgeType(ptr noundef %0, i32 noundef 2) #8
  %2 = tail call ptr @agroot(ptr noundef %0) #8
  %3 = getelementptr inbounds nuw i8, ptr %2, i64 16
  %4 = load ptr, ptr %3, align 8, !tbaa !3
  %5 = getelementptr inbounds nuw i8, ptr %4, i64 232
  store i16 2, ptr %5, align 8, !tbaa !12
  store i16 2, ptr @Ndim, align 2, !tbaa !32
  %6 = tail call i32 @agnnodes(ptr noundef %0) #8
  %7 = sext i32 %6 to i64
  %.not.i.i = icmp eq i32 %6, 0
  br i1 %.not.i.i, label %.thread.i.i, label %9

.thread.i.i:                                      ; preds = %1
  %8 = tail call noalias ptr @calloc(i64 noundef 0, i64 noundef 56) #9
  br label %20

9:                                                ; preds = %1
  %mul.ov.i.i = icmp slt i32 %6, 0
  br i1 %mul.ov.i.i, label %10, label %13

10:                                               ; preds = %9
  %11 = load ptr, ptr @stderr, align 8, !tbaa !33
  %12 = tail call i32 (ptr, ptr, ...) @fprintf(ptr noundef %11, ptr noundef nonnull @.str.6, i64 noundef range(i64 -2147483648, 2147483648) %7, i64 noundef 56) #10
  tail call fastcc void @graphviz_exit() #11
  unreachable

13:                                               ; preds = %9
  %14 = tail call noalias ptr @calloc(i64 noundef range(i64 -2147483648, 2147483648) %7, i64 noundef 56) #9
  %15 = icmp eq ptr %14, null
  br i1 %15, label %16, label %20

16:                                               ; preds = %13
  %17 = load ptr, ptr @stderr, align 8, !tbaa !33
  %18 = mul nuw nsw i64 %7, 56
  %19 = tail call i32 (ptr, ptr, ...) @fprintf(ptr noundef %17, ptr noundef nonnull @.str.7, i64 noundef %18) #10
  tail call fastcc void @graphviz_exit() #11
  unreachable

20:                                               ; preds = %13, %.thread.i.i
  %21 = phi ptr [ %8, %.thread.i.i ], [ %14, %13 ]
  %22 = add nuw nsw i32 %6, 1
  %23 = zext nneg i32 %22 to i64
  %24 = tail call noalias ptr @calloc(i64 noundef range(i64 -2147483648, 2147483648) %23, i64 noundef 8) #9
  %25 = icmp eq ptr %24, null
  br i1 %25, label %26, label %gv_calloc.exit32.i

26:                                               ; preds = %20
  %27 = load ptr, ptr @stderr, align 8, !tbaa !33
  %28 = shl nuw nsw i64 %23, 3
  %29 = tail call i32 (ptr, ptr, ...) @fprintf(ptr noundef %27, ptr noundef nonnull @.str.7, i64 noundef %28) #10
  tail call fastcc void @graphviz_exit() #11
  unreachable

gv_calloc.exit32.i:                               ; preds = %20
  %30 = getelementptr inbounds nuw i8, ptr %0, i64 16
  %31 = load ptr, ptr %30, align 8, !tbaa !3
  %32 = getelementptr inbounds nuw i8, ptr %31, i64 184
  store ptr %24, ptr %32, align 8, !tbaa !35
  %33 = tail call ptr @agfstnode(ptr noundef %0) #8
  %.not33.i = icmp eq ptr %33, null
  br i1 %.not33.i, label %._crit_edge.i, label %.lr.ph.i

.lr.ph.i:                                         ; preds = %gv_calloc.exit32.i, %.lr.ph.i
  %indvars.iv.i = phi i64 [ %indvars.iv.next.i, %.lr.ph.i ], [ 0, %gv_calloc.exit32.i ]
  %.035.i = phi ptr [ %42, %.lr.ph.i ], [ %33, %gv_calloc.exit32.i ]
  tail call void @neato_init_node(ptr noundef nonnull %.035.i) #8
  %34 = getelementptr inbounds nuw %struct.rdata, ptr %21, i64 %indvars.iv.i
  %35 = getelementptr inbounds nuw i8, ptr %.035.i, i64 16
  %36 = load ptr, ptr %35, align 8, !tbaa !3
  %37 = getelementptr inbounds nuw i8, ptr %36, i64 152
  store ptr %34, ptr %37, align 8, !tbaa !36
  %38 = load ptr, ptr %30, align 8, !tbaa !3
  %39 = getelementptr inbounds nuw i8, ptr %38, i64 184
  %40 = load ptr, ptr %39, align 8, !tbaa !35
  %indvars.iv.next.i = add nuw nsw i64 %indvars.iv.i, 1
  %41 = getelementptr inbounds nuw ptr, ptr %40, i64 %indvars.iv.i
  store ptr %.035.i, ptr %41, align 8, !tbaa !43
  %42 = tail call ptr @agnxtnode(ptr noundef nonnull %0, ptr noundef nonnull %.035.i) #8
  %.not.i = icmp eq ptr %42, null
  br i1 %.not.i, label %._crit_edge.i, label %.lr.ph.i, !llvm.loop !44

._crit_edge.i:                                    ; preds = %.lr.ph.i, %gv_calloc.exit32.i
  %43 = tail call ptr @agfstnode(ptr noundef nonnull %0) #8
  %.not2641.i = icmp eq ptr %43, null
  br i1 %.not2641.i, label %twopi_init_node_edge.exit, label %.lr.ph44.i

.lr.ph44.i:                                       ; preds = %._crit_edge.i, %._crit_edge40.i
  %.142.i = phi ptr [ %52, %._crit_edge40.i ], [ %43, %._crit_edge.i ]
  %44 = tail call ptr @agfstout(ptr noundef nonnull %0, ptr noundef nonnull %.142.i) #8
  %.not2736.i = icmp eq ptr %44, null
  br i1 %.not2736.i, label %._crit_edge40.i, label %.lr.ph39.i

.lr.ph39.i:                                       ; preds = %.lr.ph44.i, %.lr.ph39.i
  %.02437.i = phi ptr [ %51, %.lr.ph39.i ], [ %44, %.lr.ph44.i ]
  %45 = tail call ptr @agbindrec(ptr noundef nonnull %.02437.i, ptr noundef nonnull @.str.8, i32 noundef 240, i32 noundef 1) #8
  tail call void @common_init_edge(ptr noundef nonnull %.02437.i) #8
  %46 = load ptr, ptr @E_weight, align 8, !tbaa !46
  %47 = tail call double @late_double(ptr noundef nonnull %.02437.i, ptr noundef %46, double noundef 1.000000e+00, double noundef 0.000000e+00) #8
  %48 = getelementptr inbounds nuw i8, ptr %.02437.i, i64 16
  %49 = load ptr, ptr %48, align 8, !tbaa !3
  %50 = getelementptr inbounds nuw i8, ptr %49, i64 176
  store double %47, ptr %50, align 8, !tbaa !48
  %51 = tail call ptr @agnxtout(ptr noundef nonnull %0, ptr noundef nonnull %.02437.i) #8
  %.not27.i = icmp eq ptr %51, null
  br i1 %.not27.i, label %._crit_edge40.i, label %.lr.ph39.i, !llvm.loop !54

._crit_edge40.i:                                  ; preds = %.lr.ph39.i, %.lr.ph44.i
  %52 = tail call ptr @agnxtnode(ptr noundef nonnull %0, ptr noundef nonnull %.142.i) #8
  %.not26.i = icmp eq ptr %52, null
  br i1 %.not26.i, label %twopi_init_node_edge.exit, label %.lr.ph44.i, !llvm.loop !55

twopi_init_node_edge.exit:                        ; preds = %._crit_edge40.i, %._crit_edge.i
  ret void
}